; ModuleID = 'source-C-CXX/60/151.cpp'
source_filename = "source-C-CXX/60/151.cpp"
target datalayout = "e-m:e-p270:32:32-p271:32:32-p272:64:64-i64:64-f80:128-n8:16:32:64-S128"
target triple = "x86_64-pc-linux-gnu"

%"class.std::ios_base::Init" = type { i8 }
%"class.std::basic_istream" = type { i32 (...)**, i64, %"class.std::basic_ios" }
%"class.std::basic_ios" = type { %"class.std::ios_base", %"class.std::basic_ostream"*, i8, i8, %"class.std::basic_streambuf"*, %"class.std::ctype"*, %"class.std::num_put"*, %"class.std::num_get"* }
%"class.std::ios_base" = type { i32 (...)**, i64, i64, i32, i32, i32, %"struct.std::ios_base::_Callback_list"*, %"struct.std::ios_base::_Words", [8 x %"struct.std::ios_base::_Words"], i32, %"struct.std::ios_base::_Words"*, %"class.std::locale" }
%"struct.std::ios_base::_Callback_list" = type { %"struct.std::ios_base::_Callback_list"*, void (i32, %"class.std::ios_base"*, i32)*, i32, i32 }
%"struct.std::ios_base::_Words" = type { i8*, i64 }
%"class.std::locale" = type { %"class.std::locale::_Impl"* }
%"class.std::locale::_Impl" = type { i32, %"class.std::locale::facet"**, i64, %"class.std::locale::facet"**, i8** }
%"class.std::locale::facet" = type <{ i32 (...)**, i32, [4 x i8] }>
%"class.std::basic_ostream" = type { i32 (...)**, %"class.std::basic_ios" }
%"class.std::basic_streambuf" = type { i32 (...)**, i8*, i8*, i8*, i8*, i8*, i8*, %"class.std::locale" }
%"class.std::ctype" = type <{ %"class.std::locale::facet.base", [4 x i8], %struct.__locale_struct*, i8, [7 x i8], i32*, i32*, i16*, i8, [256 x i8], [256 x i8], i8, [6 x i8] }>
%"class.std::locale::facet.base" = type <{ i32 (...)**, i32 }>
%struct.__locale_struct = type { [13 x %struct.__locale_data*], i16*, i32*, i32*, [13 x i8*] }
%struct.__locale_data = type opaque
%"class.std::num_put" = type { %"class.std::locale::facet.base", [4 x i8] }
%"class.std::num_get" = type { %"class.std::locale::facet.base", [4 x i8] }

@_ZStL8__ioinit = internal global %"class.std::ios_base::Init" zeroinitializer, align 1
@__dso_handle = external hidden global i8
@_ZSt3cin = external global %"class.std::basic_istream", align 8
@_ZSt4cout = external global %"class.std::basic_ostream", align 8
@llvm.global_ctors = appending global [1 x { i32, void ()*, i8* }] [{ i32, void ()*, i8* } { i32 65535, void ()* @_GLOBAL__sub_I_151.cpp, i8* null }]

declare void @_ZNSt8ios_base4InitC1Ev(%"class.std::ios_base::Init"* nonnull align 1 dereferenceable(1)) unnamed_addr #0

; Function Attrs: nounwind
declare void @_ZNSt8ios_base4InitD1Ev(%"class.std::ios_base::Init"* nonnull align 1 dereferenceable(1)) unnamed_addr #1

; Function Attrs: nofree nounwind
declare i32 @__cxa_atexit(void (i8*)*, i8*, i8*) local_unnamed_addr #2

; Function Attrs: mustprogress norecurse sspstrong uwtable
define dso_local i32 @main() local_unnamed_addr #3 {
  %1 = alloca i32, align 4
  %2 = alloca i32, align 4
  %3 = alloca [21 x i32], align 16
  %4 = bitcast i32* %1 to i8*
  call void @llvm.lifetime.start.p0i8(i64 4, i8* nonnull %4) #8
  %5 = bitcast i32* %2 to i8*
  call void @llvm.lifetime.start.p0i8(i64 4, i8* nonnull %5) #8
  %6 = call nonnull align 8 dereferenceable(16) %"class.std::basic_istream"* @_ZNSirsERi(%"class.std::basic_istream"* nonnull align 8 dereferenceable(16) @_ZSt3cin, i32* nonnull align 4 dereferenceable(4) %1)
  %7 = bitcast [21 x i32]* %3 to i8*
  call void @llvm.lifetime.start.p0i8(i64 84, i8* nonnull %7) #8
  call void @llvm.memset.p0i8.i64(i8* noundef nonnull align 16 dereferenceable(84) %7, i8 0, i64 84, i1 false)
  %8 = getelementptr inbounds [21 x i32], [21 x i32]* %3, i64 0, i64 0
  store i32 1, i32* %8, align 16
  %9 = getelementptr inbounds [21 x i32], [21 x i32]* %3, i64 0, i64 1
  store i32 1, i32* %9, align 4
  %10 = load i32, i32* %1, align 4, !tbaa !5
  %11 = icmp eq i32 %10, 0
  br i1 %11, label %108, label %12

12:                                               ; preds = %0, %101
  %13 = call nonnull align 8 dereferenceable(16) %"class.std::basic_istream"* @_ZNSirsERi(%"class.std::basic_istream"* nonnull align 8 dereferenceable(16) @_ZSt3cin, i32* nonnull align 4 dereferenceable(4) %2)
  %14 = load i32, i32* %2, align 4, !tbaa !5
  %15 = icmp sgt i32 %14, 2
  br i1 %15, label %16, label %69

16:                                               ; preds = %12
  %17 = zext i32 %14 to i64
  %18 = load i32, i32* %9, align 4, !tbaa !5
  %19 = add nsw i64 %17, -2
  %20 = add nsw i64 %17, -3
  %21 = and i64 %19, 3
  %22 = icmp ult i64 %20, 3
  br i1 %22, label %53, label %23

23:                                               ; preds = %16
  %24 = and i64 %19, -4
  br label %25

25:                                               ; preds = %25, %23
  %26 = phi i32 [ %18, %23 ], [ %48, %25 ]
  %27 = phi i64 [ 2, %23 ], [ %50, %25 ]
  %28 = phi i64 [ %24, %23 ], [ %51, %25 ]
  %29 = add nsw i64 %27, -2
  %30 = getelementptr inbounds [21 x i32], [21 x i32]* %3, i64 0, i64 %29
  %31 = load i32, i32* %30, align 8, !tbaa !5
  %32 = add nsw i32 %31, %26
  %33 = getelementptr inbounds [21 x i32], [21 x i32]* %3, i64 0, i64 %27
  store i32 %32, i32* %33, align 8, !tbaa !5
  %34 = or i64 %27, 1
  %35 = add nsw i64 %27, -1
  %36 = getelementptr inbounds [21 x i32], [21 x i32]* %3, i64 0, i64 %35
  %37 = load i32, i32* %36, align 4, !tbaa !5
  %38 = add nsw i32 %37, %32
  %39 = getelementptr inbounds [21 x i32], [21 x i32]* %3, i64 0, i64 %34
  store i32 %38, i32* %39, align 4, !tbaa !5
  %40 = add nuw nsw i64 %27, 2
  %41 = getelementptr inbounds [21 x i32], [21 x i32]* %3, i64 0, i64 %27
  %42 = load i32, i32* %41, align 8, !tbaa !5
  %43 = add nsw i32 %42, %38
  %44 = getelementptr inbounds [21 x i32], [21 x i32]* %3, i64 0, i64 %40
  store i32 %43, i32* %44, align 8, !tbaa !5
  %45 = add nuw nsw i64 %27, 3
  %46 = getelementptr inbounds [21 x i32], [21 x i32]* %3, i64 0, i64 %34
  %47 = load i32, i32* %46, align 4, !tbaa !5
  %48 = add nsw i32 %47, %43
  %49 = getelementptr inbounds [21 x i32], [21 x i32]* %3, i64 0, i64 %45
  store i32 %48, i32* %49, align 4, !tbaa !5
  %50 = add nuw nsw i64 %27, 4
  %51 = add i64 %28, -4
  %52 = icmp eq i64 %51, 0
  br i1 %52, label %53, label %25, !llvm.loop !9

53:                                               ; preds = %25, %16
  %54 = phi i32 [ %18, %16 ], [ %48, %25 ]
  %55 = phi i64 [ 2, %16 ], [ %50, %25 ]
  %56 = icmp eq i64 %21, 0
  br i1 %56, label %69, label %57

57:                                               ; preds = %53, %57
  %58 = phi i32 [ %64, %57 ], [ %54, %53 ]
  %59 = phi i64 [ %66, %57 ], [ %55, %53 ]
  %60 = phi i64 [ %67, %57 ], [ %21, %53 ]
  %61 = add nsw i64 %59, -2
  %62 = getelementptr inbounds [21 x i32], [21 x i32]* %3, i64 0, i64 %61
  %63 = load i32, i32* %62, align 4, !tbaa !5
  %64 = add nsw i32 %63, %58
  %65 = getelementptr inbounds [21 x i32], [21 x i32]* %3, i64 0, i64 %59
  store i32 %64, i32* %65, align 4, !tbaa !5
  %66 = add nuw nsw i64 %59, 1
  %67 = add i64 %60, -1
  %68 = icmp eq i64 %67, 0
  br i1 %68, label %69, label %57, !llvm.loop !11

69:                                               ; preds = %53, %57, %12
  %70 = phi i32 [ 2, %12 ], [ %14, %57 ], [ %14, %53 ]
  %71 = add nsw i32 %70, -1
  %72 = sext i32 %71 to i64
  %73 = getelementptr inbounds [21 x i32], [21 x i32]* %3, i64 0, i64 %72
  %74 = load i32, i32* %73, align 4, !tbaa !5
  %75 = call nonnull align 8 dereferenceable(8) %"class.std::basic_ostream"* @_ZNSolsEi(%"class.std::basic_ostream"* nonnull align 8 dereferenceable(8) @_ZSt4cout, i32 %74)
  %76 = bitcast %"class.std::basic_ostream"* %75 to i8**
  %77 = load i8*, i8** %76, align 8, !tbaa !13
  %78 = getelementptr i8, i8* %77, i64 -24
  %79 = bitcast i8* %78 to i64*
  %80 = load i64, i64* %79, align 8
  %81 = bitcast %"class.std::basic_ostream"* %75 to i8*
  %82 = add nsw i64 %80, 240
  %83 = getelementptr inbounds i8, i8* %81, i64 %82
  %84 = bitcast i8* %83 to %"class.std::ctype"**
  %85 = load %"class.std::ctype"*, %"class.std::ctype"** %84, align 8, !tbaa !15
  %86 = icmp eq %"class.std::ctype"* %85, null
  br i1 %86, label %87, label %88

87:                                               ; preds = %69
  call void @_ZSt16__throw_bad_castv() #9
  unreachable

88:                                               ; preds = %69
  %89 = getelementptr inbounds %"class.std::ctype", %"class.std::ctype"* %85, i64 0, i32 8
  %90 = load i8, i8* %89, align 8, !tbaa !19
  %91 = icmp eq i8 %90, 0
  br i1 %91, label %95, label %92

92:                                               ; preds = %88
  %93 = getelementptr inbounds %"class.std::ctype", %"class.std::ctype"* %85, i64 0, i32 9, i64 10
  %94 = load i8, i8* %93, align 1, !tbaa !21
  br label %101

95:                                               ; preds = %88
  call void @_ZNKSt5ctypeIcE13_M_widen_initEv(%"class.std::ctype"* nonnull align 8 dereferenceable(570) %85)
  %96 = bitcast %"class.std::ctype"* %85 to i8 (%"class.std::ctype"*, i8)***
  %97 = load i8 (%"class.std::ctype"*, i8)**, i8 (%"class.std::ctype"*, i8)*** %96, align 8, !tbaa !13
  %98 = getelementptr inbounds i8 (%"class.std::ctype"*, i8)*, i8 (%"class.std::ctype"*, i8)** %97, i64 6
  %99 = load i8 (%"class.std::ctype"*, i8)*, i8 (%"class.std::ctype"*, i8)** %98, align 8
  %100 = call signext i8 %99(%"class.std::ctype"* nonnull align 8 dereferenceable(570) %85, i8 signext 10)
  br label %101

101:                                              ; preds = %92, %95
  %102 = phi i8 [ %94, %92 ], [ %100, %95 ]
  %103 = call nonnull align 8 dereferenceable(8) %"class.std::basic_ostream"* @_ZNSo3putEc(%"class.std::basic_ostream"* nonnull align 8 dereferenceable(8) %75, i8 signext %102)
  %104 = call nonnull align 8 dereferenceable(8) %"class.std::basic_ostream"* @_ZNSo5flushEv(%"class.std::basic_ostream"* nonnull align 8 dereferenceable(8) %103)
  %105 = load i32, i32* %1, align 4, !tbaa !5
  %106 = add nsw i32 %105, -1
  store i32 %106, i32* %1, align 4, !tbaa !5
  %107 = icmp eq i32 %106, 0
  br i1 %107, label %108, label %12, !llvm.loop !22

108:                                              ; preds = %101, %0
  call void @llvm.lifetime.end.p0i8(i64 84, i8* nonnull %7) #8
  call void @llvm.lifetime.end.p0i8(i64 4, i8* nonnull %5) #8
  call void @llvm.lifetime.end.p0i8(i64 4, i8* nonnull %4) #8
  ret i32 0
}

; Function Attrs: argmemonly mustprogress nofree nosync nounwind willreturn
declare void @llvm.lifetime.start.p0i8(i64 immarg, i8* nocapture) #4

declare nonnull align 8 dereferenceable(16) %"class.std::basic_istream"* @_ZNSirsERi(%"class.std::basic_istream"* nonnull align 8 dereferenceable(16), i32* nonnull align 4 dereferenceable(4)) local_unnamed_addr #0

; Function Attrs: argmemonly mustprogress nofree nounwind willreturn writeonly
declare void @llvm.memset.p0i8.i64(i8* nocapture writeonly, i8, i64, i1 immarg) #5

declare nonnull align 8 dereferenceable(8) %"class.std::basic_ostream"* @_ZNSolsEi(%"class.std::basic_ostream"* nonnull align 8 dereferenceable(8), i32) local_unnamed_addr #0

; Function Attrs: argmemonly mustprogress nofree nosync nounwind willreturn
declare void @llvm.lifetime.end.p0i8(i64 immarg, i8* nocapture) #4

declare nonnull align 8 dereferenceable(8) %"class.std::basic_ostream"* @_ZNSo3putEc(%"class.std::basic_ostream"* nonnull align 8 dereferenceable(8), i8 signext) local_unnamed_addr #0

declare nonnull align 8 dereferenceable(8) %"class.std::basic_ostream"* @_ZNSo5flushEv(%"class.std::basic_ostream"* nonnull align 8 dereferenceable(8)) local_unnamed_addr #0

; Function Attrs: noreturn
declare void @_ZSt16__throw_bad_castv() local_unnamed_addr #6

declare void @_ZNKSt5ctypeIcE13_M_widen_initEv(%"class.std::ctype"* nonnull align 8 dereferenceable(570)) local_unnamed_addr #0

; Function Attrs: sspstrong uwtable
define internal void @_GLOBAL__sub_I_151.cpp() #7 section ".text.startup" {
  tail call void @_ZNSt8ios_base4InitC1Ev(%"class.std::ios_base::Init"* nonnull align 1 dereferenceable(1) @_ZStL8__ioinit)
  %1 = tail call i32 @__cxa_atexit(void (i8*)* bitcast (void (%"class.std::ios_base::Init"*)* @_ZNSt8ios_base4InitD1Ev to void (i8*)*), i8* getelementptr inbounds (%"class.std::ios_base::Init", %"class.std::ios_base::Init"* @_ZStL8__ioinit, i64 0, i32 0), i8* nonnull @__dso_handle) #8
  ret void
}


!llvm.module.flags = !{!0, !1, !2, !3}
!llvm.ident = !{!4}

!0 = !{i32 1, !"wchar_size", i32 4}
!1 = !{i32 7, !"PIC Level", i32 2}
!2 = !{i32 7, !"PIE Level", i32 2}
!3 = !{i32 7, !"uwtable", i32 1}
!4 = !{!"clang version 13.0.0"}
!5 = !{!6, !6, i64 0}
!6 = !{!"int", !7, i64 0}
!7 = !{!"omnipotent char", !8, i64 0}
!8 = !{!"Simple C++ TBAA"}
!9 = distinct !{!9, !10}
!10 = !{!"llvm.loop.mustprogress"}
!11 = distinct !{!11, !12}
!12 = !{!"llvm.loop.unroll.disable"}
!13 = !{!14, !14, i64 0}
!14 = !{!"vtable pointer", !8, i64 0}
!15 = !{!16, !17, i64 240}
!16 = !{!"_ZTSSt9basic_iosIcSt11char_traitsIcEE", !17, i64 216, !7, i64 224, !18, i64 225, !17, i64 232, !17, i64 240, !17, i64 248, !17, i64 256}
!17 = !{!"any pointer", !7, i64 0}
!18 = !{!"bool", !7, i64 0}
!19 = !{!20, !7, i64 56}
!20 = !{!"_ZTSSt5ctypeIcE", !17, i64 16, !18, i64 24, !17, i64 32, !17, i64 40, !17, i64 48, !7, i64 56, !7, i64 57, !7, i64 313, !7, i64 569}
!21 = !{!7, !7, i64 0}
!22 = distinct !{!22, !10}
